; Function Attrs: mustprogress uwtable
define void @_ZN8QuantLib14OvernightIndexC2ERKNSt7__cxx1112basic_stringIcSt11char_traitsIcESaIcEEEjRKNS_8CurrencyERKNS_8CalendarERKNS_10DayCounterERKNS_6HandleINS_18YieldTermStructureEEE(ptr noundef nonnull align 8 dereferenceable(265) %this, ptr nocapture noundef nonnull readonly align 8 dereferenceable(32) %familyName, i32 noundef %settlementDays, ptr nocapture noundef nonnull readonly align 8 dereferenceable(16) %curr, ptr nocapture noundef nonnull readonly align 8 dereferenceable(16) %fixCal, ptr nocapture noundef nonnull readonly align 8 dereferenceable(16) %dc, ptr nocapture noundef nonnull readonly align 8 dereferenceable(16) %h) unnamed_addr #6 align 2 personality ptr @__gxx_personality_v0 {
entry:
  %ref.tmp = alloca %"class.QuantLib::Period", align 8
  %agg.tmp = alloca %"class.QuantLib::Handle", align 8
  call void @llvm.lifetime.start.p0(i64 8, ptr nonnull %ref.tmp) #23
  store i64 1, ptr %ref.tmp, align 8
  %0 = load ptr, ptr %h, align 8, !tbaa !72
  store ptr %0, ptr %agg.tmp, align 8, !tbaa !72
  %pn.i.i = getelementptr inbounds nuw i8, ptr %agg.tmp, i64 8
  %pn3.i.i = getelementptr inbounds nuw i8, ptr %h, i64 8
  %1 = load ptr, ptr %pn3.i.i, align 8, !tbaa !44
  store ptr %1, ptr %pn.i.i, align 8, !tbaa !44
  %cmp.not.i.i.i = icmp eq ptr %1, null
  br i1 %cmp.not.i.i.i, label %_ZN8QuantLib6HandleINS_18YieldTermStructureEEC2ERKS2_.exit, label %if.then.i.i.i

if.then.i.i.i:                                    ; preds = %entry
  %use_count_.i.i.i.i = getelementptr inbounds nuw i8, ptr %1, i64 8
  %2 = atomicrmw add ptr %use_count_.i.i.i.i, i32 1 monotonic, align 4
  br label %_ZN8QuantLib6HandleINS_18YieldTermStructureEEC2ERKS2_.exit

_ZN8QuantLib6HandleINS_18YieldTermStructureEEC2ERKS2_.exit: ; preds = %entry, %if.then.i.i.i
  invoke void @_ZN8QuantLib9IborIndexC2ERKNSt7__cxx1112basic_stringIcSt11char_traitsIcESaIcEEERKNS_6PeriodEjRKNS_8CurrencyERKNS_8CalendarENS_21BusinessDayConventionEbRKNS_10DayCounterENS_6HandleINS_18YieldTermStructureEEE(ptr noundef nonnull align 8 dereferenceable(265) %this, ptr noundef nonnull align 8 dereferenceable(32) %familyName, ptr noundef nonnull align 4 dereferenceable(8) %ref.tmp, i32 noundef %settlementDays, ptr noundef nonnull align 8 dereferenceable(16) %curr, ptr noundef nonnull align 8 dereferenceable(16) %fixCal, i32 noundef 0, i1 noundef zeroext false, ptr noundef nonnull align 8 dereferenceable(16) %dc, ptr noundef nonnull %agg.tmp)
          to label %invoke.cont unwind label %lpad

invoke.cont:                                      ; preds = %_ZN8QuantLib6HandleINS_18YieldTermStructureEEC2ERKS2_.exit
  %3 = load ptr, ptr %pn.i.i, align 8, !tbaa !44
  %cmp.not.i.i.i2 = icmp eq ptr %3, null
  br i1 %cmp.not.i.i.i2, label %_ZN8QuantLib6HandleINS_18YieldTermStructureEED2Ev.exit, label %if.then.i.i.i3

if.then.i.i.i3:                                   ; preds = %invoke.cont
  %use_count_.i.i.i.i4 = getelementptr inbounds nuw i8, ptr %3, i64 8
  %4 = atomicrmw sub ptr %use_count_.i.i.i.i4, i32 1 acq_rel, align 4
  %cmp.i.i.i.i = icmp eq i32 %4, 1
  br i1 %cmp.i.i.i.i, label %if.then.i.i.i.i, label %_ZN8QuantLib6HandleINS_18YieldTermStructureEED2Ev.exit

if.then.i.i.i.i:                                  ; preds = %if.then.i.i.i3
  %vtable.i.i.i.i = load ptr, ptr %3, align 8, !tbaa !28
  %vfn.i.i.i.i = getelementptr inbounds i8, ptr %vtable.i.i.i.i, i64 16
  %5 = load ptr, ptr %vfn.i.i.i.i, align 8
  invoke void %5(ptr noundef nonnull align 8 dereferenceable(16) %3)
          to label %.noexc.i.i.i unwind label %terminate.lpad.i.i.i

.noexc.i.i.i:                                     ; preds = %if.then.i.i.i.i
  %weak_count_.i.i.i.i.i = getelementptr inbounds nuw i8, ptr %3, i64 12
  %6 = atomicrmw sub ptr %weak_count_.i.i.i.i.i, i32 1 acq_rel, align 4
  %cmp.i.i.i.i.i = icmp eq i32 %6, 1
  br i1 %cmp.i.i.i.i.i, label %if.then.i.i.i.i.i, label %_ZN8QuantLib6HandleINS_18YieldTermStructureEED2Ev.exit

if.then.i.i.i.i.i:                                ; preds = %.noexc.i.i.i
  %vtable.i.i.i.i.i = load ptr, ptr %3, align 8, !tbaa !28
  %vfn.i.i.i.i.i = getelementptr inbounds i8, ptr %vtable.i.i.i.i.i, i64 24
  %7 = load ptr, ptr %vfn.i.i.i.i.i, align 8
  invoke void %7(ptr noundef nonnull align 8 dereferenceable(16) %3)
          to label %_ZN8QuantLib6HandleINS_18YieldTermStructureEED2Ev.exit unwind label %terminate.lpad.i.i.i

terminate.lpad.i.i.i:                             ; preds = %if.then.i.i.i.i.i, %if.then.i.i.i.i
  %8 = landingpad { ptr, i32 }
          catch ptr null
  %9 = extractvalue { ptr, i32 } %8, 0
  call void @__clang_call_terminate(ptr %9) #24
  unreachable

_ZN8QuantLib6HandleINS_18YieldTermStructureEED2Ev.exit: ; preds = %invoke.cont, %if.then.i.i.i3, %.noexc.i.i.i, %if.then.i.i.i.i.i
  call void @llvm.lifetime.end.p0(i64 8, ptr nonnull %ref.tmp) #23
  store ptr getelementptr inbounds inrange(-16, 112) (i8, ptr @_ZTVN8QuantLib14OvernightIndexE, i64 16), ptr %this, align 8, !tbaa !28
  %add.ptr = getelementptr inbounds i8, ptr %this, i64 56
  store ptr getelementptr inbounds inrange(-16, 32) (i8, ptr @_ZTVN8QuantLib14OvernightIndexE, i64 144), ptr %add.ptr, align 8, !tbaa !28
  ret void

lpad:                                             ; preds = %_ZN8QuantLib6HandleINS_18YieldTermStructureEEC2ERKS2_.exit
  %10 = landingpad { ptr, i32 }
          cleanup
  call void @_ZN8QuantLib6HandleINS_18YieldTermStructureEED2Ev(ptr noundef nonnull align 8 dereferenceable(16) %agg.tmp) #23
  call void @llvm.lifetime.end.p0(i64 8, ptr nonnull %ref.tmp) #23
  resume { ptr, i32 } %10
}